Certificate:
    Data:
        Version: 3 (0x2)
        Serial Number: 2 (0x2)
    Signature Algorithm: sha256WithRSAEncryption
        Issuer: O=waiverforever.com, OU=waiverforever.com Root CA, CN=waiverforever.com Root CA
        Validity
            Not Before: Mar 15 06:36:45 2017 GMT
            Not After : Mar 15 06:36:45 2027 GMT
        Subject: O=waiverforever.com, OU=waiverforever.com Signing CA, CN=waiverforever.com Signing CA
        Subject Public Key Info:
            Public Key Algorithm: rsaEncryption
                Public-Key: (2048 bit)
                Modulus:
                    00:a5:ec:4a:7d:80:6c:8f:9c:07:c0:e8:1b:24:28:
                    55:00:b5:9a:38:de:a0:c4:af:97:9b:f1:f1:f8:50:
                    0d:3f:1c:22:40:76:b6:35:d8:45:64:8f:c0:5b:10:
                    d3:a9:f7:3c:da:13:c7:e7:5d:60:49:6c:1f:39:d3:
                    13:9f:d6:90:06:60:57:0a:aa:a6:54:5a:df:0c:94:
                    44:fd:b9:ba:b3:aa:3f:f8:c5:6e:a1:b8:f9:3d:bb:
                    41:66:1d:9a:c8:c2:e5:fc:10:6e:5b:f8:02:35:c4:
                    bd:a9:a4:52:7d:99:da:6c:c1:d2:b5:66:73:9e:d1:
                    57:e6:44:84:1f:89:3a:a0:d3:cb:a1:29:02:53:6c:
                    89:97:05:74:df:0e:c0:1f:5f:a0:0a:e4:09:c6:51:
                    7c:3d:22:21:29:b8:bd:17:f6:99:90:54:2d:47:12:
                    98:fb:da:41:b1:0e:67:a6:df:bd:25:e6:1c:7f:4f:
                    ed:3c:60:15:95:66:0d:0d:ed:a2:40:e7:13:2d:8b:
                    c0:a4:7e:92:05:90:b3:35:d7:43:07:16:5f:7c:b4:
                    5f:f1:56:d4:3d:9b:ed:a5:9d:8f:13:5f:92:2b:ac:
                    41:c0:88:d0:47:72:ca:be:bf:fc:a9:f7:a2:48:02:
                    43:15:be:a3:96:8f:07:95:bd:6a:5e:4c:c6:b5:05:
                    0b:53
                Exponent: 65537 (0x10001)
        X509v3 extensions:
            X509v3 Key Usage: critical
                Certificate Sign, CRL Sign
            X509v3 Basic Constraints: critical
                CA:TRUE, pathlen:0
            X509v3 Subject Key Identifier: 
                F1:50:57:BC:28:00:0B:76:12:DD:0C:6D:EE:A7:8A:FD:93:00:CC:6F
            X509v3 Authority Key Identifier: 
                keyid:27:39:6B:5C:08:B3:56:21:30:9B:AA:67:ED:25:CF:EE:37:80:FD:2E

    Signature Algorithm: sha256WithRSAEncryption
         36:17:7e:65:bc:03:8e:f7:e0:dc:02:de:2c:82:d9:be:9b:60:
         23:82:36:b8:11:03:fb:60:9e:3c:76:0b:e4:ad:54:78:2a:7e:
         d8:2e:bd:53:21:3d:eb:de:88:29:08:69:80:ea:f2:28:71:d4:
         11:47:7a:0d:ab:00:b0:32:12:9e:ae:64:1c:eb:b1:c5:f4:77:
         0e:80:a7:af:4c:a8:fc:c9:83:ce:d6:f4:3c:ab:dd:24:cf:e9:
         d0:1a:32:39:ae:54:f5:67:b8:97:1a:4f:a3:82:5d:cf:05:60:
         d8:8c:b5:6f:f0:69:85:67:ff:3f:3c:e5:03:65:a6:e7:bb:7d:
         0f:b6:84:1b:a2:90:35:06:44:6e:b3:f3:5b:87:b3:cd:1f:a5:
         74:d0:05:20:56:97:be:7b:e2:35:af:73:d7:8e:cc:2e:98:a6:
         48:8d:78:d7:b7:2f:cc:d3:ee:dc:50:f4:13:b0:11:1b:5f:be:
         ff:e1:f5:e9:94:cf:5a:2a:25:56:17:57:4b:c5:fc:ff:97:32:
         c3:23:c6:bf:f8:b6:26:45:0b:9b:88:4b:4d:c5:3f:f9:2f:1a:
         b4:34:90:79:af:97:ea:9a:85:e1:ce:be:ec:15:5e:50:1a:a2:
         f5:40:de:e0:c1:e3:40:b7:13:61:e8:1a:09:c1:29:b2:ec:67:
         42:2b:e7:c6
-----BEGIN CERTIFICATE-----
MIIDrzCCApegAwIBAgIBAjANBgkqhkiG9w0BAQsFADBkMRowGAYDVQQKDBF3YWl2
ZXJmb3JldmVyLmNvbTEiMCAGA1UECwwZd2FpdmVyZm9yZXZlci5jb20gUm9vdCBD
QTEiMCAGA1UEAwwZd2FpdmVyZm9yZXZlci5jb20gUm9vdCBDQTAeFw0xNzAzMTUw
NjM2NDVaFw0yNzAzMTUwNjM2NDVaMGoxGjAYBgNVBAoMEXdhaXZlcmZvcmV2ZXIu
Y29tMSUwIwYDVQQLDBx3YWl2ZXJmb3JldmVyLmNvbSBTaWduaW5nIENBMSUwIwYD
VQQDDBx3YWl2ZXJmb3JldmVyLmNvbSBTaWduaW5nIENBMIIBIjANBgkqhkiG9w0B
AQEFAAOCAQ8AMIIBCgKCAQEApexKfYBsj5wHwOgbJChVALWaON6gxK+Xm/Hx+FAN
PxwiQHa2NdhFZI/AWxDTqfc82hPH511gSWwfOdMTn9aQBmBXCqqmVFrfDJRE/bm6
s6o/+MVuobj5PbtBZh2ayMLl/BBuW/gCNcS9qaRSfZnabMHStWZzntFX5kSEH4k6
oNPLoSkCU2yJlwV03w7AH1+gCuQJxlF8PSIhKbi9F/aZkFQtRxKY+9pBsQ5npt+9
JeYcf0/tPGAVlWYNDe2iQOcTLYvApH6SBZCzNddDBxZffLRf8VbUPZvtpZ2PE1+S
K6xBwIjQR3LKvr/8qfeiSAJDFb6jlo8Hlb1qXkzGtQULUwIDAQABo2YwZDAOBgNV
HQ8BAf8EBAMCAQYwEgYDVR0TAQH/BAgwBgEB/wIBADAdBgNVHQ4EFgQU8VBXvCgA
C3YS3Qxt7qeK/ZMAzG8wHwYDVR0jBBgwFoAUJzlrXAizViEwm6pn7SXP7jeA/S4w
DQYJKoZIhvcNAQELBQADggEBADYXfmW8A4734NwC3iyC2b6bYCOCNrgRA/tgnjx2
C+StVHgqftguvVMhPeveiCkIaYDq8ihx1BFHeg2rALAyEp6uZBzrscX0dw6Ap69M
qPzJg87W9Dyr3STP6dAaMjmuVPVnuJcaT6OCXc8FYNiMtW/waYVn/z885QNlpue7
fQ+2hBuikDUGRG6z81uHs80fpXTQBSBWl7574jWvc9eOzC6YpkiNeNe3L8zT7txQ
9BOwERtfvv/h9emUz1oqJVYXV0vF/P+XMsMjxr/4tiZFC5uIS03FP/kvGrQ0kHmv
l+qaheHOvuwVXlAaovVA3uDB40C3E2HoGgnBKbLsZ0Ir58Y=
-----END CERTIFICATE-----
